target datalayout = "e-m:e-p270:32:32-p271:32:32-p272:64:64-i64:64-i128:128-f80:128-n8:16:32:64-S128"
target triple = "x86_64-pc-linux-gnu"

%"class.icu_77::UnicodeString" = type { %"class.icu_77::Replaceable", %"union.icu_77::UnicodeString::StackBufferOrFields" }
%"class.icu_77::Replaceable" = type { %"class.icu_77::UObject" }
%"class.icu_77::UObject" = type { ptr }
%"union.icu_77::UnicodeString::StackBufferOrFields" = type { %struct.anon.0, [32 x i8] }
%struct.anon.0 = type { i16, i32, i32, ptr }
%"class.icu_77::RuleBasedNumberFormat" = type { %"class.icu_77::NumberFormat.base", ptr, ptr, i32, ptr, %"class.icu_77::Locale", ptr, ptr, ptr, ptr, i32, i8, ptr, ptr, %"class.icu_77::UnicodeString", i8, i8, i8, ptr }
%"class.icu_77::NumberFormat.base" = type <{ %"class.icu_77::Format", i8, [3 x i8], i32, i32, i32, i32, i8, i8, [4 x i16], [2 x i8], i32 }>
%"class.icu_77::Format" = type { %"class.icu_77::UObject", ptr, ptr }
%"class.icu_77::Locale" = type <{ %"class.icu_77::UObject", [12 x i8], [6 x i8], [4 x i8], [2 x i8], i32, [4 x i8], ptr, [157 x i8], [3 x i8], ptr, i8, [7 x i8] }>

; Function Attrs: mustprogress uwtable
define void @_ZN6icu_7721RuleBasedNumberFormat25adoptDecimalFormatSymbolsEPNS_20DecimalFormatSymbolsE(ptr noundef nonnull align 8 dereferenceable(456) %0, ptr noundef %1) unnamed_addr #2 align 2 {
  %3 = alloca ptr, align 8
  %4 = alloca ptr, align 8
  %5 = alloca i32, align 4
  %6 = alloca i32, align 4
  store ptr %0, ptr %3, align 8, !tbaa !3
  store ptr %1, ptr %4, align 8, !tbaa !203
  %7 = load ptr, ptr %3, align 8
  %8 = load ptr, ptr %4, align 8, !tbaa !203
  %9 = icmp eq ptr %8, null
  br i1 %9, label %10, label %11

10:                                               ; preds = %2
  br label %59

11:                                               ; preds = %2
  %12 = getelementptr inbounds nuw %"class.icu_77::RuleBasedNumberFormat", ptr %7, i32 0, i32 7
  %13 = load ptr, ptr %12, align 8, !tbaa !108
  %14 = icmp eq ptr %13, null
  br i1 %14, label %19, label %15

15:                                               ; preds = %11
  %16 = load ptr, ptr %13, align 8, !tbaa !10
  %17 = getelementptr inbounds ptr, ptr %16, i64 1
  %18 = load ptr, ptr %17, align 8
  call void %18(ptr noundef nonnull align 8 dereferenceable(2579) %13) #14
  br label %19

19:                                               ; preds = %15, %11
  %20 = load ptr, ptr %4, align 8, !tbaa !203
  %21 = getelementptr inbounds nuw %"class.icu_77::RuleBasedNumberFormat", ptr %7, i32 0, i32 7
  store ptr %20, ptr %21, align 8, !tbaa !108
  call void @llvm.lifetime.start.p0(i64 4, ptr %5) #14
  store i32 0, ptr %5, align 4, !tbaa !28
  %22 = getelementptr inbounds nuw %"class.icu_77::RuleBasedNumberFormat", ptr %7, i32 0, i32 8
  %23 = load ptr, ptr %22, align 8, !tbaa !109
  %24 = icmp eq ptr %23, null
  br i1 %24, label %26, label %25

25:                                               ; preds = %19
  call void @_ZN6icu_776NFRuleD1Ev(ptr noundef nonnull align 8 dereferenceable(112) %23) #14
  call void @_ZN6icu_777UMemorydlEPv(ptr noundef %23) #14
  br label %26

26:                                               ; preds = %25, %19
  %27 = getelementptr inbounds nuw %"class.icu_77::RuleBasedNumberFormat", ptr %7, i32 0, i32 8
  store ptr null, ptr %27, align 8, !tbaa !109
  %28 = call noundef ptr @_ZN6icu_7721RuleBasedNumberFormat29initializeDefaultInfinityRuleER10UErrorCode(ptr noundef nonnull align 8 dereferenceable(456) %7, ptr noundef nonnull align 4 dereferenceable(4) %5)
  %29 = getelementptr inbounds nuw %"class.icu_77::RuleBasedNumberFormat", ptr %7, i32 0, i32 9
  %30 = load ptr, ptr %29, align 8, !tbaa !110
  %31 = icmp eq ptr %30, null
  br i1 %31, label %33, label %32

32:                                               ; preds = %26
  call void @_ZN6icu_776NFRuleD1Ev(ptr noundef nonnull align 8 dereferenceable(112) %30) #14
  call void @_ZN6icu_777UMemorydlEPv(ptr noundef %30) #14
  br label %33

33:                                               ; preds = %32, %26
  %34 = getelementptr inbounds nuw %"class.icu_77::RuleBasedNumberFormat", ptr %7, i32 0, i32 9
  store ptr null, ptr %34, align 8, !tbaa !110
  %35 = call noundef ptr @_ZN6icu_7721RuleBasedNumberFormat24initializeDefaultNaNRuleER10UErrorCode(ptr noundef nonnull align 8 dereferenceable(456) %7, ptr noundef nonnull align 4 dereferenceable(4) %5)
  %36 = getelementptr inbounds nuw %"class.icu_77::RuleBasedNumberFormat", ptr %7, i32 0, i32 1
  %37 = load ptr, ptr %36, align 8, !tbaa !87
  %38 = icmp ne ptr %37, null
  br i1 %38, label %39, label %58

39:                                               ; preds = %33
  call void @llvm.lifetime.start.p0(i64 4, ptr %6) #14
  store i32 0, ptr %6, align 4, !tbaa !12
  br label %40

40:                                               ; preds = %54, %39
  %41 = load i32, ptr %6, align 4, !tbaa !12
  %42 = getelementptr inbounds nuw %"class.icu_77::RuleBasedNumberFormat", ptr %7, i32 0, i32 3
  %43 = load i32, ptr %42, align 8, !tbaa !105
  %44 = icmp slt i32 %41, %43
  br i1 %44, label %46, label %45

45:                                               ; preds = %40
  call void @llvm.lifetime.end.p0(i64 4, ptr %6) #14
  br label %57

46:                                               ; preds = %40
  %47 = getelementptr inbounds nuw %"class.icu_77::RuleBasedNumberFormat", ptr %7, i32 0, i32 1
  %48 = load ptr, ptr %47, align 8, !tbaa !87
  %49 = load i32, ptr %6, align 4, !tbaa !12
  %50 = sext i32 %49 to i64
  %51 = getelementptr inbounds ptr, ptr %48, i64 %50
  %52 = load ptr, ptr %51, align 8, !tbaa !121
  %53 = load ptr, ptr %4, align 8, !tbaa !203
  call void @_ZN6icu_779NFRuleSet23setDecimalFormatSymbolsERKNS_20DecimalFormatSymbolsER10UErrorCode(ptr noundef nonnull align 8 dereferenceable(163) %52, ptr noundef nonnull align 8 dereferenceable(2579) %53, ptr noundef nonnull align 4 dereferenceable(4) %5)
  br label %54

54:                                               ; preds = %46
  %55 = load i32, ptr %6, align 4, !tbaa !12
  %56 = add nsw i32 %55, 1
  store i32 %56, ptr %6, align 4, !tbaa !12
  br label %40, !llvm.loop !217

57:                                               ; preds = %45
  br label %58

58:                                               ; preds = %57, %33
  call void @llvm.lifetime.end.p0(i64 4, ptr %5) #14
  br label %59

59:                                               ; preds = %58, %10
  ret void
}