; Function Attrs: mustprogress uwtable
define void @_ZN6icu_7721RuleBasedNumberFormat25adoptDecimalFormatSymbolsEPNS_20DecimalFormatSymbolsE(ptr noundef nonnull align 8 dereferenceable(456) %0, ptr noundef %1) unnamed_addr #3 align 2 {
  %3 = alloca i32, align 4
  %4 = icmp eq ptr %1, null
  br i1 %4, label %37, label %5

5:                                                ; preds = %2
  %6 = getelementptr inbounds nuw i8, ptr %0, i64 328
  %7 = load ptr, ptr %6, align 8, !tbaa !90
  %8 = icmp eq ptr %7, null
  br i1 %8, label %13, label %9

9:                                                ; preds = %5
  %10 = load ptr, ptr %7, align 8, !tbaa !3
  %11 = getelementptr inbounds nuw i8, ptr %10, i64 8
  %12 = load ptr, ptr %11, align 8
  tail call void %12(ptr noundef nonnull align 8 dereferenceable(2579) %7) #21
  br label %13

13:                                               ; preds = %9, %5
  store ptr %1, ptr %6, align 8, !tbaa !90
  call void @llvm.lifetime.start.p0(i64 4, ptr nonnull %3) #21
  store i32 0, ptr %3, align 4, !tbaa !19
  %14 = getelementptr inbounds nuw i8, ptr %0, i64 336
  %15 = load ptr, ptr %14, align 8, !tbaa !112
  %16 = icmp eq ptr %15, null
  br i1 %16, label %18, label %17

17:                                               ; preds = %13
  tail call void @_ZN6icu_776NFRuleD1Ev(ptr noundef nonnull align 8 dereferenceable(112) %15) #21
  tail call void @_ZN6icu_777UMemorydlEPv(ptr noundef nonnull %15) #21
  br label %18

18:                                               ; preds = %17, %13
  store ptr null, ptr %14, align 8, !tbaa !112
  %19 = call noundef ptr @_ZN6icu_7721RuleBasedNumberFormat29initializeDefaultInfinityRuleER10UErrorCode(ptr noundef nonnull align 8 dereferenceable(456) %0, ptr noundef nonnull align 4 dereferenceable(4) %3)
  %20 = getelementptr inbounds nuw i8, ptr %0, i64 344
  %21 = load ptr, ptr %20, align 8, !tbaa !113
  %22 = icmp eq ptr %21, null
  br i1 %22, label %24, label %23

23:                                               ; preds = %18
  call void @_ZN6icu_776NFRuleD1Ev(ptr noundef nonnull align 8 dereferenceable(112) %21) #21
  call void @_ZN6icu_777UMemorydlEPv(ptr noundef nonnull %21) #21
  br label %24

24:                                               ; preds = %23, %18
  store ptr null, ptr %20, align 8, !tbaa !113
  %25 = call noundef ptr @_ZN6icu_7721RuleBasedNumberFormat24initializeDefaultNaNRuleER10UErrorCode(ptr noundef nonnull align 8 dereferenceable(456) %0, ptr noundef nonnull align 4 dereferenceable(4) %3)
  %26 = getelementptr inbounds nuw i8, ptr %0, i64 64
  %27 = load ptr, ptr %26, align 8, !tbaa !95
  %.not = icmp eq ptr %27, null
  br i1 %.not, label %.loopexit, label %.preheader

.preheader:                                       ; preds = %24
  %28 = getelementptr inbounds nuw i8, ptr %0, i64 80
  %29 = load i32, ptr %28, align 8, !tbaa !94
  %30 = icmp sgt i32 %29, 0
  br i1 %30, label %.lr.ph, label %.loopexit

.lr.ph:                                           ; preds = %.preheader, %.lr.ph
  %indvars.iv = phi i64 [ %indvars.iv.next, %.lr.ph ], [ 0, %.preheader ]
  %31 = load ptr, ptr %26, align 8, !tbaa !95
  %32 = getelementptr inbounds nuw ptr, ptr %31, i64 %indvars.iv
  %33 = load ptr, ptr %32, align 8, !tbaa !96
  call void @_ZN6icu_779NFRuleSet23setDecimalFormatSymbolsERKNS_20DecimalFormatSymbolsER10UErrorCode(ptr noundef nonnull align 8 dereferenceable(163) %33, ptr noundef nonnull align 8 dereferenceable(2579) %1, ptr noundef nonnull align 4 dereferenceable(4) %3)
  %indvars.iv.next = add nuw nsw i64 %indvars.iv, 1
  %34 = load i32, ptr %28, align 8, !tbaa !94
  %35 = sext i32 %34 to i64
  %36 = icmp slt i64 %indvars.iv.next, %35
  br i1 %36, label %.lr.ph, label %.loopexit, !llvm.loop !140

.loopexit:                                        ; preds = %.lr.ph, %.preheader, %24
  call void @llvm.lifetime.end.p0(i64 4, ptr nonnull %3) #21
  br label %37

37:                                               ; preds = %2, %.loopexit
  ret void
}